(lp0
(lp1
cnumpy.core.multiarray
scalar
p2
(cnumpy
dtype
p3
(S'i8'
p4
I0
I1
tp5
Rp6
(I3
S'<'
p7
NNNI-1
I-1
I0
tp8
bS'\r\x00\x00\x00\x00\x00\x00\x00'
p9
tp10
Rp11
ag2
(g6
S'\x0f\x00\x00\x00\x00\x00\x00\x00'
p12
tp13
Rp14
ag2
(g6
S'\x0b\x00\x00\x00\x00\x00\x00\x00'
p15
tp16
Rp17
aI0
ag2
(g6
S'\x07\x00\x00\x00\x00\x00\x00\x00'
p18
tp19
Rp20
ag2
(g6
S'\x07\x00\x00\x00\x00\x00\x00\x00'
p21
tp22
Rp23
ag2
(g6
S'\x07\x00\x00\x00\x00\x00\x00\x00'
p24
tp25
Rp26
ag2
(g6
S'\x07\x00\x00\x00\x00\x00\x00\x00'
p27
tp28
Rp29
ag2
(g6
S'\t\x00\x00\x00\x00\x00\x00\x00'
p30
tp31
Rp32
ag2
(g6
S'\n\x00\x00\x00\x00\x00\x00\x00'
p33
tp34
Rp35
ag2
(g6
S'\x08\x00\x00\x00\x00\x00\x00\x00'
p36
tp37
Rp38
aI0
ag2
(g6
S'\x05\x00\x00\x00\x00\x00\x00\x00'
p39
tp40
Rp41
ag2
(g6
S'\x05\x00\x00\x00\x00\x00\x00\x00'
p42
tp43
Rp44
ag2
(g6
S'\x04\x00\x00\x00\x00\x00\x00\x00'
p45
tp46
Rp47
ag2
(g6
S'\x04\x00\x00\x00\x00\x00\x00\x00'
p48
tp49
Rp50
ag2
(g6
S'\x06\x00\x00\x00\x00\x00\x00\x00'
p51
tp52
Rp53
ag2
(g6
S'\x06\x00\x00\x00\x00\x00\x00\x00'
p54
tp55
Rp56
ag2
(g6
S'\x05\x00\x00\x00\x00\x00\x00\x00'
p57
tp58
Rp59
aI0
aI0
ag2
(g6
S'\x05\x00\x00\x00\x00\x00\x00\x00'
p60
tp61
Rp62
ag2
(g6
S'\x05\x00\x00\x00\x00\x00\x00\x00'
p63
tp64
Rp65
ag2
(g6
S'\x05\x00\x00\x00\x00\x00\x00\x00'
p66
tp67
Rp68
aI0
ag2
(g6
S'\x07\x00\x00\x00\x00\x00\x00\x00'
p69
tp70
Rp71
ag2
(g6
S'\x04\x00\x00\x00\x00\x00\x00\x00'
p72
tp73
Rp74
ag2
(g6
S'\x08\x00\x00\x00\x00\x00\x00\x00'
p75
tp76
Rp77
aI0
aI0
aI0
aI0
ag2
(g6
S'\x06\x00\x00\x00\x00\x00\x00\x00'
p78
tp79
Rp80
ag2
(g6
S'\x04\x00\x00\x00\x00\x00\x00\x00'
p81
tp82
Rp83
aI0
ag2
(g6
S'\x08\x00\x00\x00\x00\x00\x00\x00'
p84
tp85
Rp86
aI0
aI0
aI0
aI0
ag2
(g6
S'\x04\x00\x00\x00\x00\x00\x00\x00'
p87
tp88
Rp89
aI0
ag2
(g6
S'\x05\x00\x00\x00\x00\x00\x00\x00'
p90
tp91
Rp92
ag2
(g6
S'\x04\x00\x00\x00\x00\x00\x00\x00'
p93
tp94
Rp95
aI0
aI0
aI0
aI0
ag2
(g6
S'\x05\x00\x00\x00\x00\x00\x00\x00'
p96
tp97
Rp98
aI0
aI0
aI0
aI0
ag2
(g6
S'\x06\x00\x00\x00\x00\x00\x00\x00'
p99
tp100
Rp101
ag2
(g6
S'\x06\x00\x00\x00\x00\x00\x00\x00'
p102
tp103
Rp104
ag2
(g6
S'\x06\x00\x00\x00\x00\x00\x00\x00'
p105
tp106
Rp107
aI0
aI0
ag2
(g6
S'\x05\x00\x00\x00\x00\x00\x00\x00'
p108
tp109
Rp110
aI0
aI0
aI0
ag2
(g6
S'\x05\x00\x00\x00\x00\x00\x00\x00'
p111
tp112
Rp113
ag2
(g6
S'\x06\x00\x00\x00\x00\x00\x00\x00'
p114
tp115
Rp116
aI0
aI0
aI0
aI0
aI0
aI0
aI0
aI0
aa.(lp0
(lp1
I1
acnumpy.core.multiarray
scalar
p2
(cnumpy
dtype
p3
(S'i8'
p4
I0
I1
tp5
Rp6
(I3
S'<'
p7
NNNI-1
I-1
I0
tp8
bS'\x0f\x00\x00\x00\x00\x00\x00\x00'
p9
tp10
Rp11
aI9
aI0
ag2
(g6
S'\x07\x00\x00\x00\x00\x00\x00\x00'
p12
tp13
Rp14
aI13
aI2
ag2
(g6
S'\x07\x00\x00\x00\x00\x00\x00\x00'
p15
tp16
Rp17
ag2
(g6
S'\t\x00\x00\x00\x00\x00\x00\x00'
p18
tp19
Rp20
ag2
(g6
S'\n\x00\x00\x00\x00\x00\x00\x00'
p21
tp22
Rp23
aI3
aI0
aI6
ag2
(g6
S'\x05\x00\x00\x00\x00\x00\x00\x00'
p24
tp25
Rp26
aI0
aI7
aI13
ag2
(g6
S'\x06\x00\x00\x00\x00\x00\x00\x00'
p27
tp28
Rp29
ag2
(g6
S'\x05\x00\x00\x00\x00\x00\x00\x00'
p30
tp31
Rp32
aI0
aI10
aI8
ag2
(g6
S'\x05\x00\x00\x00\x00\x00\x00\x00'
p33
tp34
Rp35
ag2
(g6
S'\x05\x00\x00\x00\x00\x00\x00\x00'
p36
tp37
Rp38
aI13
ag2
(g6
S'\x07\x00\x00\x00\x00\x00\x00\x00'
p39
tp40
Rp41
ag2
(g6
S'\x04\x00\x00\x00\x00\x00\x00\x00'
p42
tp43
Rp44
ag2
(g6
S'\x08\x00\x00\x00\x00\x00\x00\x00'
p45
tp46
Rp47
aI2
aI0
aI9
aI0
ag2
(g6
S'\x06\x00\x00\x00\x00\x00\x00\x00'
p48
tp49
Rp50
aI5
aI9
aI1
aI12
aI1
aI2
aI0
aI12
aI15
ag2
(g6
S'\x05\x00\x00\x00\x00\x00\x00\x00'
p51
tp52
Rp53
aI6
aI0
aI0
aI6
aI0
aI3
aI0
aI4
aI0
aI0
ag2
(g6
S'\x06\x00\x00\x00\x00\x00\x00\x00'
p54
tp55
Rp56
ag2
(g6
S'\x06\x00\x00\x00\x00\x00\x00\x00'
p57
tp58
Rp59
aI9
aI2
aI1
ag2
(g6
S'\x05\x00\x00\x00\x00\x00\x00\x00'
p60
tp61
Rp62
aI7
aI2
aI10
aI13
aI12
aI0
aI0
aI0
aI0
aI7
aI0
aI5
aI0
aa(lp63
I0
aI8
ag2
(g6
S'\x0b\x00\x00\x00\x00\x00\x00\x00'
p64
tp65
Rp66
aI0
ag14
aI1
ag2
(g6
S'\x07\x00\x00\x00\x00\x00\x00\x00'
p67
tp68
Rp69
ag17
aI1
ag23
ag2
(g6
S'\x08\x00\x00\x00\x00\x00\x00\x00'
p70
tp71
Rp72
aI0
ag2
(g6
S'\x05\x00\x00\x00\x00\x00\x00\x00'
p73
tp74
Rp75
ag26
aI7
ag2
(g6
S'\x04\x00\x00\x00\x00\x00\x00\x00'
p76
tp77
Rp78
ag2
(g6
S'\x06\x00\x00\x00\x00\x00\x00\x00'
p79
tp80
Rp81
ag29
ag32
aI15
aI0
aI7
aI7
aI6
aI8
aI7
ag44
aI11
aI0
aI0
aI14
aI0
aI11
ag2
(g6
S'\x04\x00\x00\x00\x00\x00\x00\x00'
p82
tp83
Rp84
aI6
ag2
(g6
S'\x08\x00\x00\x00\x00\x00\x00\x00'
p85
tp86
Rp87
aI0
aI0
aI10
aI0
ag2
(g6
S'\x04\x00\x00\x00\x00\x00\x00\x00'
p88
tp89
Rp90
aI0
aI14
ag2
(g6
S'\x04\x00\x00\x00\x00\x00\x00\x00'
p91
tp92
Rp93
aI0
aI2
aI0
aI0
ag2
(g6
S'\x05\x00\x00\x00\x00\x00\x00\x00'
p94
tp95
Rp96
aI0
aI3
aI0
aI0
aI9
aI10
aI10
aI0
aI0
aI9
aI0
aI0
aI0
ag2
(g6
S'\x05\x00\x00\x00\x00\x00\x00\x00'
p97
tp98
Rp99
aI13
aI7
aI0
aI12
aI0
aI15
aI0
aI0
aI0
aa(lp100
g2
(g6
S'\r\x00\x00\x00\x00\x00\x00\x00'
p101
tp102
Rp103
ag11
ag66
aI4
aI5
aI10
ag69
ag17
aI10
ag23
aI3
aI9
ag75
ag26
ag2
(g6
S'\x04\x00\x00\x00\x00\x00\x00\x00'
p104
tp105
Rp106
ag78
ag81
ag29
aI13
aI13
aI10
ag2
(g6
S'\x05\x00\x00\x00\x00\x00\x00\x00'
p107
tp108
Rp109
ag35
aI1
aI6
aI1
ag44
ag47
aI0
aI0
aI0
aI0
ag50
ag84
aI4
ag87
aI7
aI12
aI0
aI0
ag90
aI0
aI10
ag93
aI0
aI0
aI4
aI0
ag96
aI0
aI11
aI8
aI8
ag56
ag59
aI4
aI0
aI0
aI7
aI0
aI0
aI5
aI11
aI7
aI0
aI7
aI0
aI0
aI0
aI7
aI0
aI0
aa(lp110
I15
ag11
ag66
aI0
aI13
aI0
ag69
ag17
ag20
aI3
aI13
aI0
ag75
ag26
ag106
aI9
ag81
ag29
ag32
aI8
aI0
ag109
ag35
ag38
aI0
ag41
aI12
aI12
aI0
aI0
aI0
aI0
ag50
ag84
aI15
ag87
aI5
aI0
aI0
aI0
ag90
aI0
aI11
ag93
aI0
aI0
aI9
aI13
ag96
aI6
aI0
aI9
aI0
aI2
aI2
ag2
(g6
S'\x06\x00\x00\x00\x00\x00\x00\x00'
p111
tp112
Rp113
aI9
aI0
aI13
aI15
aI0
aI0
aI0
ag2
(g6
S'\x06\x00\x00\x00\x00\x00\x00\x00'
p114
tp115
Rp116
aI14
aI8
aI0
aI5
aI0
aI0
aI6
aI0
aa(lp117
g103
aI6
aI5
aI0
ag14
ag2
(g6
S'\x07\x00\x00\x00\x00\x00\x00\x00'
p118
tp119
Rp120
ag69
aI3
aI2
ag23
aI6
aI12
ag75
ag26
aI7
ag78
ag81
ag29
aI12
aI0
aI0
aI14
aI2
ag38
aI0
aI14
aI9
aI6
aI0
aI0
aI8
aI0
ag50
ag84
aI14
ag87
aI6
aI0
aI0
aI0
aI1
aI15
aI1
ag93
aI1
aI11
aI4
aI4
aI10
aI14
aI5
aI14
aI9
ag56
ag59
ag113
aI0
aI0
ag62
aI0
aI9
aI0
ag99
aI8
aI0
aI2
aI0
aI0
aI10
aI11
aI1
aI10
aa(lp121
g103
aI0
ag66
aI0
aI0
ag120
ag69
ag17
ag20
aI0
aI0
aI0
aI12
ag26
ag106
aI15
ag81
ag29
ag32
aI1
aI6
ag109
ag35
ag38
aI0
ag41
ag44
aI6
aI10
aI9
aI0
aI0
ag50
ag84
aI14
aI8
aI0
aI0
aI0
aI0
ag90
aI0
aI6
ag93
aI0
aI0
aI0
aI0
ag96
aI7
aI0
aI5
aI0
ag56
aI0
ag113
aI10
aI0
aI7
aI11
aI0
aI0
aI5
ag116
aI0
aI1
aI4
aI0
aI2
aI7
aI0
aI2
aa(lp122
g103
ag11
ag66
aI0
ag14
ag120
ag69
aI9
aI10
aI8
ag72
aI0
ag75
ag26
ag106
ag78
ag81
ag29
ag32
aI0
aI0
ag109
ag35
ag38
aI0
ag41
aI3
ag47
aI0
aI0
aI0
aI4
ag50
ag84
aI0
ag87
aI0
aI11
aI0
aI0
aI6
aI0
aI13
ag93
aI0
aI0
aI0
aI5
ag96
aI0
aI0
aI0
aI0
aI10
aI1
ag113
aI0
aI0
ag62
aI0
aI0
aI0
ag99
ag116
aI4
aI0
aI0
aI13
aI0
aI0
aI0
aI2
aa(lp123
g103
ag11
aI6
aI0
aI10
ag120
aI13
aI14
ag20
aI11
ag72
aI0
aI1
ag26
ag106
ag78
aI1
ag29
ag32
aI0
aI0
aI5
aI7
aI4
aI11
ag41
ag44
ag47
aI12
aI0
aI6
aI11
ag50
aI3
aI15
ag87
aI0
aI3
aI0
aI0
aI2
aI0
aI6
aI13
aI9
aI0
aI10
aI0
ag96
aI0
aI13
aI6
aI15
ag56
ag59
aI15
aI8
aI11
ag62
aI13
aI9
aI0
aI2
ag116
aI0
aI0
aI10
aI7
aI13
aI3
aI0
aI0
aa(lp124
I7
ag11
aI14
aI0
aI1
ag120
aI6
ag17
ag20
ag23
aI1
aI0
aI0
ag26
aI13
ag78
ag81
ag29
ag32
aI0
aI0
ag109
aI8
aI9
aI0
ag41
aI14
aI1
aI0
aI0
aI0
aI15
ag50
ag84
aI0
ag87
aI0
aI0
aI0
aI0
aI12
aI13
aI13
ag93
aI0
aI6
aI0
aI0
aI15
aI0
aI0
aI0
aI10
ag56
ag59
ag113
aI0
aI0
ag62
aI0
aI0
aI0
ag99
ag116
aI0
aI11
aI0
aI0
aI11
aI0
aI0
aI0
aa(lp125
g103
aI0
ag66
aI0
ag14
ag120
ag69
ag17
aI2
ag23
ag72
aI0
ag75
aI15
ag106
aI4
ag81
aI12
ag32
aI0
aI0
aI7
ag35
ag38
aI0
ag41
ag44
ag47
aI0
aI0
aI0
aI3
aI0
aI10
aI7
ag87
aI0
aI0
aI5
aI0
ag90
aI0
aI6
aI10
aI0
aI0
aI0
aI4
aI2
aI0
aI0
aI0
aI0
ag56
ag59
ag113
aI0
aI0
ag62
aI10
aI0
aI0
aI10
aI3
aI0
aI0
aI0
aI0
aI0
aI0
aI0
aI0
aa(lp126
g103
ag11
aI14
aI7
ag14
ag120
ag69
aI15
aI11
ag23
aI10
aI0
ag75
ag26
ag106
ag78
ag81
aI15
aI11
aI3
aI10
aI2
aI6
ag38
aI11
ag41
ag44
aI3
aI0
aI6
aI3
aI0
aI6
aI3
aI11
aI13
aI7
aI11
aI12
aI12
ag90
aI0
aI12
ag93
aI10
aI0
aI11
aI0
ag96
aI0
aI0
aI11
aI8
aI12
ag59
ag113
aI0
aI0
ag62
aI0
aI3
aI11
aI10
ag116
aI8
aI0
aI0
aI0
aI0
aI9
aI14
aI12
aa(lp127
I2
ag11
aI13
aI0
aI11
aI13
ag69
ag17
aI14
ag23
ag72
aI10
ag75
ag26
aI0
aI7
aI13
aI6
aI8
aI0
aI11
aI9
aI5
aI9
aI7
aI5
ag44
aI1
aI0
aI4
aI15
aI4
aI5
ag84
aI0
ag87
aI15
aI1
aI4
aI6
aI7
aI0
aI6
ag93
aI0
aI0
aI0
aI0
ag96
aI0
aI0
aI4
aI0
aI2
aI8
aI2
aI0
aI0
aI0
aI12
aI12
aI5
aI14
aI2
aI14
aI0
aI10
aI10
aI0
aI0
aI0
aI0
aa(lp128
g103
ag11
aI1
aI0
aI13
ag120
aI6
ag17
aI2
ag23
aI10
aI0
aI2
ag26
aI14
aI0
aI8
aI10
ag32
aI0
aI5
aI3
aI14
ag38
aI0
aI9
ag44
aI11
aI2
aI0
aI0
aI14
aI3
ag84
aI0
aI12
aI0
aI9
aI0
aI0
aI8
aI8
aI14
aI9
aI0
aI0
aI2
aI0
ag96
aI10
aI12
aI15
aI4
ag56
ag59
ag113
aI9
aI0
aI0
aI15
aI0
aI2
aI10
ag116
aI0
aI13
aI0
aI7
aI15
aI6
aI9
aI13
aa(lp129
g103
ag11
ag66
aI0
ag14
ag120
ag69
ag17
ag20
ag23
ag72
aI13
aI0
aI2
ag106
ag78
ag81
ag29
aI2
aI0
aI0
aI4
ag35
ag38
aI11
ag41
ag44
ag47
aI0
aI0
aI0
aI0
ag50
aI7
aI11
aI13
aI0
aI0
aI0
aI0
ag90
aI0
ag53
ag93
aI0
aI0
aI5
aI0
aI0
aI0
aI0
aI3
aI0
ag56
ag59
ag113
aI0
aI0
ag62
aI0
aI9
aI0
aI9
ag116
aI0
aI0
aI0
aI0
aI0
aI0
aI0
aI0
aa(lp130
g103
ag11
aI13
aI8
ag14
aI15
ag69
ag17
ag20
ag23
aI10
aI0
ag75
ag26
ag106
ag78
ag81
aI12
ag32
aI2
aI0
ag109
aI0
ag38
aI0
aI3
ag44
aI6
aI0
aI0
aI0
aI0
ag50
ag84
aI0
aI14
aI0
aI0
aI0
aI0
ag90
aI4
aI12
ag93
aI0
aI0
aI0
aI0
ag96
aI0
aI0
aI0
aI13
ag56
aI5
ag113
aI0
aI0
ag62
aI8
aI0
aI9
aI9
aI4
aI0
aI0
aI0
aI0
aI0
aI0
aI4
aI0
aa(lp131
I0
ag11
aI3
aI0
aI8
aI9
ag69
ag17
ag20
aI8
ag72
aI0
ag75
ag26
aI14
aI6
ag81
aI10
ag32
aI8
aI13
ag109
ag35
ag38
aI0
ag41
aI6
ag47
aI14
aI0
aI0
aI0
ag50
ag84
aI13
ag87
aI11
aI0
aI14
aI10
aI4
aI0
ag53
aI15
aI0
aI0
aI5
aI0
aI5
aI10
aI0
aI0
aI8
aI15
aI6
ag113
aI14
aI0
ag62
aI0
aI0
aI0
aI7
aI3
aI0
aI8
aI0
aI0
aI0
aI0
aI0
aI0
aa(lp132
g103
aI6
aI6
aI6
aI4
ag120
aI12
ag17
aI14
aI9
aI11
aI12
aI4
aI13
ag106
aI9
ag81
ag29
ag32
aI0
aI0
aI10
aI8
ag38
aI0
aI14
aI7
aI11
aI0
aI0
aI4
aI2
aI8
ag84
aI13
aI2
aI0
aI0
aI11
aI4
ag90
aI1
ag53
ag93
aI12
aI0
aI0
aI0
aI6
aI10
aI0
aI11
aI12
ag56
ag59
aI1
aI2
aI4
ag62
aI13
aI0
aI14
aI6
ag116
aI4
aI9
aI0
aI6
aI0
aI0
aI9
aI14
aa(lp133
g103
aI1
ag66
aI0
ag14
aI11
aI12
aI8
ag20
aI9
aI9
aI0
aI12
ag26
aI11
aI12
aI8
aI7
aI2
aI10
aI0
aI10
aI12
ag38
aI10
ag41
ag44
ag47
aI0
aI0
aI0
aI0
aI7
aI0
aI0
ag87
aI0
aI10
aI10
aI2
ag90
aI3
aI7
ag93
aI1
aI15
aI0
aI0
aI1
aI0
aI11
aI0
aI13
aI0
aI7
aI7
aI15
aI0
ag62
aI0
aI0
aI0
aI15
aI9
aI11
aI0
aI0
aI0
aI0
aI13
aI0
aI0
aa(lp134
g103
ag11
ag66
aI0
ag14
ag120
ag69
aI4
ag20
ag23
ag72
aI7
aI0
ag26
ag106
ag78
ag81
ag29
aI0
aI0
aI0
ag109
ag35
ag38
aI0
ag41
ag44
aI8
aI1
aI0
aI0
aI0
aI9
ag84
aI6
ag87
aI0
aI0
aI0
aI0
ag90
aI0
ag53
ag93
aI0
aI6
aI0
aI0
aI4
aI0
aI0
aI0
aI0
ag56
ag59
ag113
aI0
aI0
ag62
aI0
aI13
aI0
aI5
aI13
aI1
aI0
aI0
aI0
aI0
aI0
aI0
aI0
aa(lp135
I13
ag11
ag66
aI6
aI12
ag120
ag69
ag17
ag20
aI13
ag72
aI0
aI12
aI11
ag106
aI5
aI8
ag29
ag32
aI0
aI0
ag109
aI13
aI6
aI0
aI9
aI0
aI6
aI0
aI0
aI0
aI7
ag50
ag84
aI0
ag87
aI0
aI0
aI2
aI6
ag90
aI1
aI15
aI2
aI11
aI4
aI15
aI13
ag96
aI8
aI3
aI0
aI1
aI6
aI5
ag113
aI3
aI14
ag62
aI9
aI0
aI0
ag99
ag116
aI0
aI1
aI7
aI5
aI0
aI12
aI0
aI9
aa(lp136
g103
ag11
ag66
aI7
ag14
ag120
ag69
ag17
aI9
ag23
ag72
aI0
ag75
ag26
ag106
ag78
ag81
aI2
aI13
aI12
aI0
ag109
ag35
ag38
aI0
ag41
ag44
aI4
aI0
aI0
aI9
aI0
ag50
ag84
aI3
ag87
aI12
aI0
aI2
aI0
ag90
aI3
ag53
ag93
aI0
aI0
aI0
aI0
ag96
aI0
aI7
aI0
aI5
ag56
ag59
ag113
aI0
aI0
ag62
aI0
aI0
aI0
ag99
ag116
aI7
aI0
aI0
aI0
aI0
aI0
aI0
aI0
aa(lp137
g103
ag11
ag66
aI0
aI10
ag120
aI4
ag17
ag20
ag23
ag72
aI4
ag75
ag26
ag106
ag78
aI12
ag29
ag32
aI13
aI0
ag109
aI1
aI1
aI0
ag41
ag44
ag47
aI0
aI0
aI0
aI0
ag50
ag84
aI0
ag87
aI0
aI5
aI0
aI0
ag90
aI0
ag53
ag93
aI7
aI0
aI6
aI0
aI10
aI0
aI5
aI0
aI0
ag56
ag59
ag113
aI3
aI0
ag62
aI0
aI0
aI0
ag99
ag116
aI0
aI0
aI0
aI0
aI15
aI0
aI0
aI0
aa(lp138
I15
aI7
ag66
aI6
aI9
ag120
ag69
aI3
aI7
aI4
ag72
aI0
aI8
aI2
aI0
ag78
aI11
aI3
aI0
aI0
aI2
aI12
ag35
aI14
aI15
aI6
aI7
aI9
aI0
aI14
aI11
aI13
aI1
ag84
aI8
aI10
aI0
aI0
aI3
aI6
aI1
aI12
aI8
aI1
aI0
aI0
aI0
aI12
aI15
aI0
aI0
aI7
aI0
aI14
aI9
aI5
aI0
aI7
aI15
aI13
aI6
aI9
ag99
aI5
aI13
aI13
aI5
aI5
aI15
aI8
aI0
aI0
aa(lp139
g103
ag11
ag66
aI3
ag14
aI2
ag69
ag17
ag20
aI0
aI14
aI0
ag75
ag26
ag106
ag78
ag81
ag29
ag32
aI0
aI0
aI3
ag35
aI10
aI0
ag41
ag44
ag47
aI6
aI0
aI0
aI6
ag50
ag84
aI0
ag87
aI0
aI0
aI0
aI0
ag90
aI0
ag53
ag93
aI0
aI0
aI0
aI0
ag96
aI0
aI0
aI0
aI0
ag56
ag59
ag113
aI13
aI4
ag62
aI0
aI0
aI7
aI7
ag116
aI12
aI14
aI0
aI0
aI0
aI0
aI0
aI0
aa(lp140
g103
aI7
ag66
aI13
aI4
ag120
ag69
ag17
aI4
ag23
aI13
aI0
aI4
ag26
ag106
ag78
ag81
ag29
ag32
aI13
aI0
aI0
ag35
aI5
aI4
aI13
ag44
aI7
aI15
aI0
aI0
aI0
ag50
ag84
aI0
aI12
aI11
aI0
aI0
aI0
aI5
aI0
ag53
ag93
aI0
aI8
aI0
aI0
ag96
aI8
aI0
aI0
aI7
aI1
ag59
aI5
aI0
aI0
ag62
aI0
aI8
aI0
ag99
ag116
aI4
aI8
aI4
aI13
aI3
aI0
aI11
aI0
aa(lp141
I9
aI11
aI1
aI13
aI4
aI9
ag69
ag17
ag20
ag23
ag72
aI6
ag75
ag26
aI15
ag78
aI14
ag29
ag32
aI5
aI0
ag109
aI5
aI14
aI14
ag41
ag44
ag47
aI0
aI0
aI0
aI0
aI13
aI14
aI0
ag87
aI15
aI3
aI15
aI0
aI9
aI8
aI5
ag93
aI12
aI11
aI0
aI0
ag96
aI14
aI0
aI7
aI3
aI9
aI6
aI5
aI6
aI15
ag62
aI3
aI0
aI8
aI7
aI0
aI8
aI9
aI0
aI11
aI9
aI4
aI1
aI12
aa(lp142
I9
ag11
ag66
aI8
ag14
ag120
ag69
aI6
aI12
aI6
aI15
aI5
aI15
aI0
aI6
aI7
aI7
aI2
ag32
aI11
aI2
ag109
aI2
aI14
aI0
aI7
ag44
aI14
aI5
aI0
aI14
aI0
ag50
aI1
aI14
aI15
aI10
aI3
aI0
aI15
aI4
aI9
aI7
aI15
aI10
aI12
aI6
aI4
aI5
aI9
aI12
aI12
aI13
ag56
aI9
ag113
aI0
aI8
ag62
aI6
aI4
aI0
aI11
aI1
aI0
aI0
aI10
aI2
aI0
aI0
aI0
aI8
aa(lp143
g103
aI12
ag66
aI0
aI10
aI14
ag69
aI5
aI11
ag23
aI9
aI0
ag75
aI7
aI4
ag78
aI6
aI12
aI10
aI10
aI0
aI10
aI6
aI12
aI11
aI13
ag44
ag47
aI12
aI0
aI9
aI0
aI11
aI1
aI0
aI15
aI6
aI2
aI0
aI0
ag90
aI0
ag53
ag93
aI0
aI0
aI10
aI3
aI11
aI5
aI0
aI6
aI5
aI12
ag59
aI15
aI14
aI1
ag62
aI1
aI0
aI9
aI13
ag116
aI13
aI0
aI10
aI13
aI0
aI0
aI9
aI8
aa(lp144
g103
ag11
ag66
aI0
ag14
ag120
aI14
ag17
ag20
ag23
ag72
aI0
ag75
aI11
ag106
aI3
ag81
ag29
ag32
aI0
aI0
ag109
aI10
aI9
aI0
ag41
ag44
ag47
aI0
aI0
aI0
aI0
ag50
ag84
aI0
ag87
aI0
aI0
aI0
aI0
aI2
aI0
ag53
ag93
aI0
aI0
aI0
aI0
ag96
aI0
aI0
aI0
aI1
ag56
ag59
ag113
aI0
aI0
ag62
aI15
aI0
aI7
aI12
aI0
aI0
aI4
aI6
aI0
aI0
aI0
aI0
aI0
aa(lp145
I8
ag11
ag66
aI0
aI11
ag120
ag69
aI0
aI1
ag23
aI4
aI0
aI3
ag26
aI1
ag78
ag81
ag29
ag32
aI0
aI0
ag109
ag35
ag38
aI15
aI10
ag44
aI11
aI12
aI0
aI0
aI0
aI1
ag84
aI0
aI0
aI14
aI13
aI12
aI0
ag90
aI8
ag53
aI15
aI10
aI0
aI0
aI0
aI0
aI0
aI0
aI0
aI8
aI6
ag59
ag113
aI0
aI3
ag62
aI15
aI0
aI0
ag99
aI7
aI12
aI0
aI1
aI0
aI0
aI0
aI0
aI0
aa(lp146
g103
aI8
aI14
aI0
aI2
ag120
ag69
ag17
aI3
aI9
ag72
aI0
aI7
ag26
ag106
ag78
ag81
ag29
ag32
aI0
aI0
ag109
ag35
ag38
aI12
aI3
ag44
ag47
aI5
aI0
aI0
aI0
aI11
ag84
aI0
aI13
aI0
aI0
aI0
aI8
aI11
aI0
ag53
ag93
aI2
aI0
aI0
aI0
ag96
aI7
aI0
aI0
aI0
aI0
aI3
aI12
aI0
aI0
aI6
aI0
aI2
aI0
ag99
ag116
aI0
aI0
aI0
aI0
aI6
aI0
aI0
aI0
aa(lp147
g103
ag11
aI3
aI0
ag14
aI6
aI6
aI9
ag20
ag23
ag72
aI11
aI2
ag26
aI7
aI10
ag81
ag29
aI14
aI0
aI0
ag109
aI13
ag38
aI0
ag41
ag44
ag47
aI0
aI0
aI9
aI1
aI8
ag84
aI15
ag87
aI0
aI0
aI3
aI0
ag90
aI0
ag53
ag93
aI0
aI6
aI4
aI0
ag96
aI0
aI6
aI0
aI1
aI5
aI3
ag113
aI1
aI0
ag62
aI0
aI0
aI0
ag99
aI4
aI0
aI0
aI0
aI11
aI0
aI13
aI0
aI0
aa(lp148
I12
ag11
ag66
aI13
aI9
ag120
ag69
ag17
ag20
ag23
ag72
aI2
aI10
ag26
aI12
aI12
aI7
aI8
ag32
aI0
aI5
ag109
aI0
ag38
aI0
ag41
ag44
ag47
aI7
aI6
aI0
aI0
aI4
aI11
aI0
aI3
aI10
aI0
aI0
aI0
ag90
aI0
ag53
aI0
aI0
aI0
aI0
aI0
aI8
aI0
aI4
aI0
aI15
ag56
ag59
aI5
aI7
aI0
ag62
aI0
aI0
aI1
aI13
aI6
aI9
aI0
aI0
aI0
aI12
aI0
aI0
aI0
aa(lp149
I13
ag11
ag66
aI0
aI3
ag120
aI2
ag17
aI7
aI5
ag72
aI6
aI4
aI9
aI7
aI2
ag81
ag29
ag32
aI5
aI0
aI9
ag35
ag38
aI0
aI7
aI7
ag47
aI0
aI10
aI0
aI14
aI11
ag84
aI0
ag87
aI0
aI0
aI0
aI0
ag90
aI0
aI4
ag93
aI0
aI0
aI9
aI0
ag96
aI9
aI0
aI0
aI2
ag56
aI11
ag113
aI14
aI0
ag62
aI14
aI0
aI11
ag99
ag116
aI11
aI0
aI0
aI9
aI2
aI0
aI0
aI0
aa(lp150
g103
ag11
aI4
aI0
ag14
aI10
aI6
ag17
ag20
aI8
ag72
aI0
aI14
aI12
ag106
aI1
aI12
ag29
aI14
aI11
aI11
ag109
aI14
ag38
aI9
aI13
aI1
aI1
aI0
aI0
aI0
aI0
ag50
ag84
aI0
ag87
aI3
aI2
aI13
aI0
ag90
aI13
ag53
ag93
aI1
aI15
aI11
aI0
aI5
aI0
aI0
aI13
aI8
aI3
aI5
aI8
aI0
aI0
ag62
aI0
aI0
aI5
aI12
aI10
aI0
aI4
aI15
aI0
aI0
aI4
aI5
aI0
aa(lp151
I3
ag11
aI5
aI0
ag14
ag120
ag69
aI2
ag20
ag23
aI14
aI0
aI15
ag26
ag106
aI3
aI13
ag29
aI0
aI12
aI13
ag109
aI6
aI12
aI5
aI7
aI5
aI14
aI0
aI10
aI13
aI15
aI6
ag84
aI0
aI9
aI11
aI0
aI0
aI0
ag90
aI11
ag53
ag93
aI0
aI2
aI0
aI1
aI8
aI7
aI10
aI3
aI0
ag56
aI12
aI6
aI0
aI8
ag62
aI0
aI4
aI0
ag99
ag116
aI0
aI0
aI0
aI0
aI1
aI0
aI0
aI11
aa(lp152
g103
ag11
aI1
aI11
aI7
ag120
ag69
aI0
aI6
aI9
aI2
aI14
aI0
aI3
aI3
ag78
ag81
aI8
aI0
aI0
aI1
aI3
ag35
ag38
aI3
ag41
aI9
ag47
aI0
aI14
aI3
aI8
aI12
aI10
aI7
aI4
aI0
aI0
aI0
aI4
aI14
aI8
aI3
aI11
aI5
aI1
aI0
aI0
aI2
aI8
aI0
aI2
aI13
aI5
aI6
ag113
aI3
aI15
aI4
aI10
aI13
aI0
ag99
aI7
aI0
aI7
aI1
aI7
aI12
aI2
aI3
aI14
aa(lp153
I13
aI7
ag66
aI3
ag14
aI9
ag69
aI10
aI0
ag23
aI15
aI12
aI14
aI1
aI8
ag78
aI6
ag29
aI9
aI0
aI0
aI5
aI10
aI10
aI0
ag41
aI0
aI10
aI0
aI0
aI0
aI0
ag50
ag84
aI14
aI15
aI0
aI6
aI13
aI5
aI10
aI0
aI10
ag93
aI0
aI12
aI0
aI0
aI14
aI15
aI0
aI1
aI0
aI12
aI13
ag113
aI12
aI0
ag62
aI7
aI0
aI0
aI7
ag116
aI7
aI7
aI9
aI4
aI0
aI2
aI15
aI8
aa(lp154
I11
aI2
ag66
aI5
aI8
aI14
ag69
aI0
aI13
aI12
aI13
aI11
aI8
aI2
ag106
aI0
aI9
aI4
ag32
aI10
aI3
aI6
aI6
aI1
aI0
aI4
ag44
aI4
aI12
aI12
aI8
aI0
ag50
aI15
aI13
ag87
aI6
aI0
aI4
aI2
ag90
aI0
aI10
aI2
aI0
aI6
aI0
aI0
aI3
aI6
aI10
aI0
aI6
ag56
aI10
ag113
aI3
aI5
aI7
aI11
aI7
aI0
aI7
aI8
aI0
aI11
aI3
aI3
aI6
aI0
aI0
aI10
aa(lp155
g103
ag11
ag66
aI0
ag14
ag120
ag69
aI2
ag20
ag23
ag72
aI3
ag75
aI2
ag106
ag78
ag81
ag29
aI10
aI0
aI9
ag109
aI13
ag38
aI0
aI15
ag44
ag47
aI1
aI0
aI0
aI0
ag50
ag84
aI0
ag87
aI0
aI11
aI0
aI0
ag90
aI8
ag53
ag93
aI0
aI0
aI4
aI7
aI9
aI8
aI0
aI8
aI4
aI9
ag59
aI4
aI0
aI0
ag62
aI1
aI0
aI4
ag99
ag116
aI0
aI0
aI0
aI0
aI0
aI0
aI6
aI0
aa(lp156
g103
ag11
ag66
aI13
aI4
ag120
ag69
ag17
aI4
aI9
ag72
aI3
ag75
ag26
ag106
ag78
ag81
ag29
ag32
aI0
aI5
aI10
ag35
aI1
aI0
ag41
ag44
ag47
aI0
aI0
aI0
aI0
ag50
ag84
aI0
ag87
aI0
aI0
aI0
aI0
ag90
aI3
ag53
aI9
aI0
aI0
aI0
aI0
ag96
aI0
aI0
aI0
aI0
ag56
ag59
ag113
aI5
aI0
ag62
aI0
aI0
aI7
ag99
ag116
aI0
aI0
aI0
aI0
aI0
aI0
aI7
aI0
aa(lp157
g103
ag11
aI2
aI0
aI12
ag120
aI1
ag17
ag20
aI5
aI5
aI6
aI7
ag26
aI10
ag78
ag81
ag29
ag32
aI0
aI0
ag109
ag35
ag38
aI0
aI8
ag44
aI12
aI9
aI0
aI0
aI0
ag50
ag84
aI0
ag87
aI5
aI6
aI0
aI0
aI7
aI0
ag53
aI1
aI0
aI0
aI0
aI5
aI2
aI8
aI0
aI6
aI0
ag56
aI14
aI12
aI0
aI0
ag62
aI10
aI0
aI15
ag99
ag116
aI0
aI8
aI0
aI0
aI0
aI0
aI7
aI0
aa(lp158
g103
ag11
aI12
aI9
aI6
aI2
ag69
ag17
aI9
aI1
ag72
aI0
ag75
ag26
ag106
aI11
ag81
aI6
aI8
aI1
aI0
aI6
aI1
aI5
aI2
ag41
ag44
aI10
aI3
aI0
aI0
aI14
aI2
aI0
aI6
aI12
aI11
aI0
aI0
aI8
aI0
aI2
aI5
aI1
aI8
aI0
aI10
aI0
aI8
aI15
aI1
aI0
aI0
aI9
aI5
aI2
aI0
aI9
ag62
aI5
aI11
aI0
ag99
ag116
aI0
aI0
aI0
aI8
aI9
aI8
aI0
aI9
aa(lp159
I13
ag11
ag66
aI0
ag14
ag120
ag69
ag17
ag20
ag23
ag72
aI8
ag75
ag26
ag106
ag78
aI3
ag29
ag32
aI0
aI10
aI0
ag35
ag38
aI0
ag41
aI1
ag47
aI0
aI0
aI0
aI0
ag50
ag84
aI0
aI14
aI0
aI12
aI0
aI0
ag90
aI0
aI14
ag93
aI0
aI0
aI0
aI0
ag96
aI0
aI0
aI0
aI0
ag56
ag59
aI14
aI2
aI0
ag62
aI0
aI15
aI0
ag99
aI2
aI0
aI0
aI0
aI3
aI0
aI0
aI0
aI0
aa(lp160
g103
ag11
ag66
aI0
ag14
ag120
aI11
ag17
ag20
ag23
aI2
aI0
ag75
ag26
ag106
ag78
ag81
aI14
ag32
aI0
aI0
ag109
ag35
ag38
aI0
aI15
ag44
ag47
aI0
aI0
aI4
aI0
aI15
ag84
aI6
ag87
aI11
aI0
aI0
aI0
ag90
aI0
ag53
ag93
aI0
aI0
aI0
aI1
ag96
aI0
aI0
aI6
aI0
ag56
ag59
ag113
aI0
aI0
aI8
aI0
aI13
aI13
ag99
ag116
aI0
aI0
aI0
aI0
aI0
aI12
aI0
aI0
aa(lp161
I6
ag11
aI11
aI0
aI5
ag120
ag69
aI3
aI14
aI2
aI3
aI0
aI1
aI7
aI12
aI4
ag81
aI3
ag32
aI10
aI14
ag109
aI7
ag38
aI0
aI3
ag44
ag47
aI12
aI0
aI8
aI4
aI13
aI3
aI0
aI7
aI0
aI0
aI10
aI10
ag90
aI5
aI6
ag93
aI0
aI0
aI0
aI12
aI13
aI11
aI0
aI0
aI10
ag56
aI0
aI4
aI0
aI0
aI10
aI10
aI12
aI0
aI4
ag116
aI2
aI11
aI10
aI10
aI14
aI11
aI6
aI0
aa(lp162
I13
ag11
ag66
aI12
aI10
aI11
aI4
ag17
aI4
aI2
aI8
aI0
ag75
aI9
aI5
aI8
aI14
aI7
aI9
aI3
aI0
ag109
ag35
aI15
aI0
aI13
aI15
aI13
aI12
aI6
aI0
aI5
aI11
aI5
aI0
ag87
aI0
aI0
aI0
aI0
aI1
aI0
aI3
aI11
aI11
aI11
aI0
aI6
aI1
aI4
aI0
aI6
aI9
aI12
aI3
aI13
aI12
aI9
aI7
aI12
aI4
aI9
ag99
ag116
aI9
aI9
aI0
aI7
aI7
aI4
aI0
aI3
aa(lp163
g103
aI12
aI15
aI0
ag14
aI0
ag69
aI14
ag20
aI4
ag72
aI0
ag75
ag26
aI5
ag78
aI13
aI1
aI7
aI6
aI0
ag109
ag35
ag38
aI0
ag41
aI9
ag47
aI8
aI0
aI0
aI14
aI9
ag84
aI0
aI15
aI8
aI8
aI0
aI4
ag90
aI9
aI3
ag93
aI0
aI0
aI0
aI0
aI3
aI0
aI2
aI0
aI13
ag56
aI12
ag113
aI14
aI11
ag62
aI0
aI9
aI6
aI14
aI7
aI0
aI5
aI0
aI5
aI3
aI0
aI8
aI10
aa(lp164
I15
aI8
ag66
aI0
ag14
ag120
aI6
aI15
aI14
ag23
aI7
aI2
ag75
aI3
aI12
aI1
ag81
aI11
ag32
aI11
aI3
aI0
ag35
aI6
aI12
ag41
aI0
aI14
aI6
aI10
aI0
aI11
aI13
ag84
aI0
aI1
aI8
aI7
aI0
aI0
ag90
aI0
aI6
ag93
aI3
aI3
aI14
aI4
aI2
aI0
aI1
aI6
aI5
aI11
ag59
aI8
aI11
aI5
aI4
aI0
aI15
aI0
aI2
aI14
aI13
aI5
aI10
aI2
aI7
aI13
aI7
aI0
aa(lp165
I5
ag11
aI4
aI0
aI15
aI1
ag69
ag17
aI6
aI12
ag72
aI10
ag75
aI11
ag106
ag78
ag81
ag29
ag32
aI2
aI13
aI9
aI7
ag38
aI0
ag41
aI1
aI4
aI0
aI0
aI11
aI0
ag50
ag84
aI0
ag87
aI2
aI0
aI0
aI0
ag90
aI15
aI6
aI3
aI0
aI0
aI0
aI0
aI12
aI0
aI0
aI0
aI0
aI7
aI3
ag113
aI0
aI0
ag62
aI0
aI12
aI11
ag99
aI12
aI11
aI0
aI10
aI0
aI0
aI0
aI2
aI0
aa(lp166
g103
ag11
ag66
aI3
aI6
ag120
ag69
ag17
ag20
ag23
ag72
aI0
ag75
ag26
ag106
ag78
aI2
ag29
ag32
aI0
aI0
ag109
ag35
ag38
aI2
ag41
aI3
ag47
aI1
aI15
aI9
aI0
aI1
ag84
aI5
ag87
aI0
aI14
aI0
aI0
ag90
aI0
ag53
ag93
aI0
aI3
aI0
aI2
aI14
aI0
aI0
aI1
aI0
ag56
ag59
aI10
aI0
aI0
ag62
aI0
aI7
aI0
ag99
aI3
aI15
aI0
aI0
aI0
aI0
aI13
aI4
aI0
aa(lp167
g103
aI9
aI4
aI6
ag14
ag120
ag69
ag17
ag20
ag23
ag72
aI0
ag75
ag26
ag106
aI3
aI0
ag29
ag32
aI3
aI0
ag109
ag35
aI4
aI0
ag41
ag44
ag47
aI0
aI0
aI13
aI4
aI6
ag84
aI13
ag87
aI12
aI0
aI15
aI0
ag90
aI14
aI10
ag93
aI12
aI0
aI13
aI1
aI10
aI0
aI0
aI0
aI0
ag56
ag59
aI14
aI5
aI0
ag62
aI5
aI14
aI0
ag99
aI6
aI0
aI9
aI0
aI0
aI12
aI3
aI0
aI0
aa(lp168
g103
ag11
ag66
aI0
aI9
ag120
ag69
ag17
ag20
ag23
ag72
aI0
aI15
aI13
aI4
aI1
aI11
ag29
ag32
aI7
aI0
ag109
aI9
ag38
aI0
aI4
ag44
aI11
aI12
aI13
aI0
aI7
aI15
ag84
aI0
aI0
aI0
aI9
aI0
aI0
ag90
aI0
aI8
ag93
aI0
aI14
aI3
aI0
ag96
aI0
aI0
aI0
aI0
aI4
aI8
ag113
aI0
aI15
aI11
aI0
aI0
aI5
ag99
ag116
aI0
aI11
aI0
aI0
aI10
aI11
aI0
aI1
aa(lp169
I9
ag11
ag66
aI0
ag14
aI2
ag69
ag17
ag20
ag23
aI0
aI7
aI6
aI7
ag106
aI0
ag81
aI4
aI3
aI0
aI12
ag109
ag35
aI6
aI11
aI13
aI2
aI1
aI0
aI0
aI0
aI0
ag50
ag84
aI13
ag87
aI0
aI10
aI0
aI13
ag90
aI0
ag53
aI12
aI8
aI0
aI9
aI0
ag96
aI0
aI0
aI0
aI15
aI8
ag59
ag113
aI0
aI0
ag62
aI0
aI2
aI0
aI13
ag116
aI0
aI5
aI0
aI0
aI10
aI0
aI2
aI0
aa(lp170
I9
aI3
aI2
aI0
ag14
ag120
aI3
aI12
aI6
ag23
aI13
aI0
aI6
aI12
ag106
aI0
aI10
aI14
ag32
aI11
aI2
aI15
aI0
aI5
aI14
aI3
aI15
ag47
aI0
aI0
aI0
aI4
aI6
aI14
aI0
aI8
aI5
aI0
aI0
aI6
aI7
aI0
ag53
aI4
aI2
aI8
aI8
aI2
ag96
aI0
aI12
aI0
aI0
aI2
aI7
aI1
aI1
aI2
ag62
aI4
aI0
aI7
aI11
aI11
aI11
aI13
aI14
aI0
aI13
aI0
aI4
aI0
aa(lp171
g103
ag11
ag66
aI4
ag14
aI10
aI2
ag17
ag20
ag23
ag72
aI12
ag75
aI12
ag106
aI12
aI1
ag29
ag32
aI0
aI0
ag109
ag35
ag38
aI12
ag41
ag44
ag47
aI0
aI0
aI0
aI0
aI14
ag84
aI0
ag87
aI0
aI0
aI0
aI0
ag90
aI0
ag53
ag93
aI0
aI2
aI0
aI0
ag96
aI0
aI0
aI12
aI14
aI13
ag59
ag113
aI0
aI0
ag62
aI0
aI0
aI0
ag99
ag116
aI0
aI0
aI0
aI0
aI0
aI0
aI10
aI0
aa(lp172
I1
ag11
aI11
aI1
ag14
aI12
aI4
aI9
ag20
aI6
aI7
aI0
ag75
aI5
aI10
ag78
aI3
aI10
aI3
aI0
aI9
aI12
aI8
aI3
aI0
aI11
ag44
ag47
aI6
aI11
aI0
aI0
ag50
ag84
aI13
aI15
aI0
aI13
aI12
aI0
ag90
aI0
aI3
aI5
aI14
aI0
aI14
aI0
aI2
aI15
aI11
aI9
aI0
ag56
aI15
aI14
aI0
aI10
ag62
aI6
aI4
aI1
aI6
aI1
aI15
aI0
aI7
aI3
aI5
aI7
aI1
aI0
aa(lp173
g103
ag11
aI7
aI0
ag14
ag120
ag69
ag17
ag20
ag23
ag72
aI0
aI7
aI11
ag106
ag78
ag81
ag29
ag32
aI0
aI0
aI15
ag35
aI15
aI0
ag41
ag44
ag47
aI0
aI0
aI0
aI9
ag50
ag84
aI0
ag87
aI0
aI0
aI0
aI0
ag90
aI0
ag53
ag93
aI4
aI12
aI0
aI15
ag96
aI4
aI0
aI7
aI0
ag56
ag59
ag113
aI0
aI0
aI13
aI0
aI0
aI0
ag99
aI13
aI0
aI11
aI0
aI0
aI0
aI0
aI0
aI0
aa(lp174
g103
aI1
ag66
aI0
ag14
ag120
aI4
aI3
ag20
aI8
ag72
aI11
ag75
ag26
aI2
aI5
ag81
ag29
ag32
aI0
aI0
ag109
aI12
aI13
aI11
ag41
aI11
ag47
aI0
aI0
aI0
aI0
ag50
aI15
aI0
ag87
aI0
aI0
aI0
aI0
aI4
aI0
aI2
aI4
aI0
aI0
aI0
aI0
ag96
aI10
aI0
aI0
aI0
aI12
ag59
ag113
aI7
aI6
aI8
aI8
aI0
aI8
ag99
ag116
aI8
aI0
aI6
aI9
aI4
aI5
aI0
aI12
aa(lp175
I7
aI14
aI9
aI14
ag14
aI7
aI0
aI2
aI14
aI11
ag72
aI9
aI0
ag26
aI2
aI12
aI13
aI5
ag32
aI0
aI10
aI12
aI0
aI5
aI3
aI1
aI3
ag47
aI0
aI7
aI11
aI8
ag50
ag84
aI0
ag87
aI13
aI4
aI0
aI0
aI0
aI0
aI10
ag93
aI12
aI12
aI0
aI0
aI14
aI0
aI0
aI1
aI13
aI5
ag59
ag113
aI0
aI0
aI6
aI5
aI1
aI12
aI8
aI10
aI12
aI2
aI9
aI6
aI0
aI3
aI1
aI14
aa(lp176
g103
ag11
aI2
aI0
aI0
aI15
ag69
ag17
ag20
aI1
ag72
aI1
aI14
ag26
ag106
ag78
aI9
aI8
ag32
aI0
aI0
ag109
ag35
ag38
aI0
aI0
aI14
ag47
aI0
aI0
aI4
aI5
ag50
ag84
aI0
ag87
aI1
aI0
aI13
aI0
ag90
aI0
aI7
aI3
aI0
aI0
aI10
aI14
ag96
aI0
aI0
aI0
aI0
ag56
ag59
aI4
aI0
aI0
ag62
aI7
aI0
aI0
ag99
ag116
aI0
aI0
aI8
aI0
aI0
aI0
aI0
aI0
aa(lp177
g103
ag11
ag66
aI0
ag14
ag120
ag69
aI10
ag20
aI3
ag72
aI0
ag75
ag26
ag106
ag78
ag81
ag29
ag32
aI0
aI0
aI3
ag35
ag38
aI0
ag41
ag44
ag47
aI0
aI0
aI0
aI3
aI3
ag84
aI0
ag87
aI0
aI12
aI0
aI0
ag90
aI4
ag53
ag93
aI0
aI0
aI0
aI0
ag96
aI0
aI13
aI0
aI0
aI2
ag59
ag113
aI0
aI0
ag62
aI5
aI0
aI0
aI15
aI3
aI0
aI0
aI0
aI0
aI0
aI0
aI0
aI10
aa(lp178
I1
ag11
ag66
aI0
ag14
ag120
ag69
ag17
aI12
ag23
ag72
aI12
ag75
ag26
ag106
ag78
aI11
ag29
ag32
aI0
aI10
ag109
ag35
aI1
aI0
ag41
aI1
ag47
aI0
aI4
aI9
aI0
aI1
ag84
aI0
aI11
aI0
aI0
aI12
aI0
ag90
aI4
ag53
ag93
aI0
aI0
aI8
aI0
ag96
aI0
aI0
aI0
aI0
ag56
ag59
ag113
aI0
aI1
ag62
aI0
aI0
aI13
aI10
ag116
aI0
aI5
aI0
aI0
aI14
aI5
aI0
aI0
aa(lp179
I7
aI1
ag66
aI9
aI5
aI7
aI11
ag17
ag20
aI0
ag72
aI0
aI4
ag26
ag106
aI12
aI5
ag29
ag32
aI10
aI0
ag109
aI0
ag38
aI13
ag41
aI1
ag47
aI3
aI12
aI0
aI0
aI9
aI14
aI0
aI9
aI0
aI6
aI10
aI11
aI15
aI0
aI15
ag93
aI0
aI14
aI2
aI0
ag96
aI13
aI0
aI7
aI14
ag56
aI2
aI15
aI6
aI0
aI13
aI14
aI8
aI8
aI11
ag116
aI10
aI3
aI10
aI0
aI0
aI14
aI0
aI14
aa(lp180
g103
ag11
aI1
aI0
ag14
ag120
aI6
ag17
ag20
ag23
ag72
aI0
ag75
ag26
ag106
ag78
ag81
aI5
ag32
aI0
aI10
ag109
ag35
ag38
aI0
ag41
aI6
aI3
aI0
aI0
aI0
aI0
ag50
aI6
aI0
aI8
aI14
aI0
aI3
aI2
ag90
aI0
ag53
ag93
aI0
aI0
aI0
aI0
ag96
aI0
aI8
aI6
aI0
ag56
ag59
ag113
aI0
aI0
ag62
aI0
aI0
aI0
ag99
ag116
aI0
aI4
aI0
aI0
aI0
aI0
aI0
aI0
aa(lp181
g103
aI0
aI11
aI0
aI13
ag120
ag69
aI2
aI14
ag23
ag72
aI0
aI2
aI5
ag106
aI8
ag81
ag29
aI14
aI0
aI1
ag109
aI10
aI12
aI0
ag41
aI0
ag47
aI0
aI0
aI2
aI0
aI9
aI15
aI8
ag87
aI0
aI0
aI0
aI4
aI2
aI0
ag53
aI6
aI0
aI0
aI12
aI0
ag96
aI0
aI0
aI0
aI0
ag56
aI15
aI4
aI0
aI0
ag62
aI12
aI15
aI4
aI8
aI8
aI0
aI0
aI13
aI4
aI5
aI0
aI1
aI9
aa(lp182
I12
ag11
ag66
aI15
aI0
aI1
ag69
ag17
aI11
aI7
aI15
aI4
aI4
aI15
ag106
aI12
aI4
ag29
aI2
aI1
aI8
ag109
ag35
aI8
aI14
ag41
ag44
ag47
aI0
aI6
aI2
aI0
aI2
aI2
aI13
ag87
aI3
aI10
aI0
aI11
aI7
aI0
ag53
aI7
aI8
aI15
aI0
aI0
aI12
aI15
aI10
aI9
aI6
aI5
aI15
aI0
aI5
aI0
aI15
aI14
aI7
aI0
aI14
aI2
aI0
aI3
aI1
aI0
aI6
aI11
aI0
aI3
aa(lp183
I7
ag11
aI5
aI2
ag14
ag120
aI15
aI9
aI13
ag23
ag72
aI2
ag75
ag26
aI1
aI8
ag81
ag29
ag32
aI0
aI15
ag109
ag35
ag38
aI0
ag41
aI5
ag47
aI6
aI12
aI0
aI3
ag50
ag84
aI3
aI1
aI4
aI0
aI5
aI5
ag90
aI12
ag53
aI9
aI0
aI1
aI0
aI13
aI2
aI0
aI9
aI0
aI0
aI0
aI10
ag113
aI8
aI13
aI8
aI0
aI0
aI0
ag99
aI4
aI1
aI0
aI4
aI0
aI0
aI14
aI13
aI0
aa(lp184
g103
ag11
ag66
aI0
ag14
ag120
ag69
aI8
aI10
ag23
aI8
aI0
aI13
aI6
aI15
aI3
ag81
ag29
aI3
aI14
aI0
ag109
ag35
aI2
aI11
ag41
aI12
ag47
aI12
aI0
aI0
aI12
aI6
aI10
aI10
aI0
aI0
aI0
aI8
aI6
ag90
aI0
ag53
aI10
aI0
aI0
aI0
aI0
aI1
aI0
aI0
aI0
aI0
aI1
ag59
ag113
aI11
aI0
aI1
aI8
aI0
aI0
ag99
ag116
aI0
aI0
aI0
aI8
aI12
aI0
aI0
aI0
aa(lp185
g103
ag11
ag66
aI0
aI8
ag120
aI8
ag17
ag20
aI14
aI3
aI7
ag75
aI4
aI10
ag78
aI13
aI9
ag32
aI0
aI2
ag109
ag35
aI7
aI0
aI3
ag44
ag47
aI0
aI8
aI0
aI0
ag50
ag84
aI0
aI4
aI0
aI0
aI0
aI0
aI6
aI2
aI11
ag93
aI0
aI0
aI0
aI0
ag96
aI0
aI15
aI13
aI0
ag56
ag59
ag113
aI0
aI0
aI3
aI0
aI0
aI0
ag99
aI8
aI0
aI5
aI0
aI7
aI3
aI0
aI3
aI11
aa(lp186
g103
ag11
ag66
aI0
ag14
ag120
ag69
ag17
ag20
ag23
aI8
aI0
ag75
aI6
ag106
ag78
ag81
ag29
ag32
aI0
aI0
ag109
aI5
ag38
aI0
ag41
aI15
ag47
aI0
aI0
aI11
aI8
ag50
aI10
aI0
ag87
aI0
aI1
aI0
aI0
ag90
aI0
ag53
ag93
aI0
aI0
aI0
aI0
ag96
aI0
aI4
aI1
aI0
aI11
ag59
ag113
aI0
aI11
aI15
aI0
aI0
aI0
ag99
ag116
aI0
aI0
aI0
aI0
aI0
aI0
aI6
aI0
aa(lp187
I11
ag11
ag66
aI0
ag14
ag120
aI7
aI2
ag20
aI12
ag72
aI9
aI11
ag26
aI3
aI15
ag81
ag29
aI2
aI6
aI14
aI10
aI8
aI4
aI7
aI7
aI9
aI9
aI0
aI0
aI0
aI1
aI13
aI11
aI6
aI0
aI0
aI0
aI0
aI9
aI9
aI0
ag53
aI7
aI4
aI13
aI8
aI9
aI11
aI0
aI0
aI14
aI7
ag56
aI7
aI9
aI10
aI0
aI0
aI12
aI0
aI6
aI14
aI10
aI11
aI15
aI6
aI0
aI10
aI5
aI8
aI1
aa(lp188
g103
ag11
ag66
aI5
ag14
ag120
ag69
ag17
aI7
aI7
aI6
aI0
ag75
aI9
ag106
ag78
ag81
ag29
ag32
aI0
aI0
ag109
ag35
ag38
aI0
ag41
ag44
ag47
aI0
aI0
aI0
aI13
aI6
ag84
aI0
ag87
aI0
aI0
aI0
aI0
ag90
aI0
ag53
aI1
aI0
aI0
aI0
aI0
ag96
aI0
aI0
aI0
aI0
aI14
ag59
ag113
aI6
aI11
ag62
aI11
aI0
aI0
aI12
ag116
aI0
aI0
aI0
aI15
aI0
aI0
aI0
aI0
aa(lp189
g103
ag11
ag66
aI0
aI0
ag120
ag69
ag17
ag20
ag23
ag72
aI0
ag75
ag26
ag106
ag78
ag81
aI7
aI10
aI0
aI8
ag109
ag35
ag38
aI0
ag41
aI6
ag47
aI0
aI3
aI9
aI10
aI10
ag84
aI1
ag87
aI0
aI0
aI0
aI14
ag90
aI15
aI11
aI7
aI15
aI2
aI14
aI0
ag96
aI3
aI0
aI0
aI0
aI15
ag59
ag113
aI8
aI0
ag62
aI12
aI0
aI7
aI13
aI4
aI3
aI0
aI6
aI10
aI4
aI0
aI0
aI0
aa(lp190
I9
ag11
ag66
aI0
aI14
aI1
ag69
ag17
ag20
aI8
aI4
aI0
ag75
ag26
ag106
aI6
ag81
ag29
ag32
aI9
aI11
aI2
aI4
ag38
aI0
ag41
ag44
aI5
aI0
aI0
aI7
aI4
aI15
ag84
aI0
aI8
aI0
aI0
aI8
aI5
aI11
aI0
aI11
ag93
aI0
aI15
aI13
aI2
ag96
aI10
aI14
aI0
aI0
aI7
aI9
ag113
aI13
aI0
ag62
aI0
aI15
aI5
aI8
aI9
aI0
aI0
aI0
aI0
aI7
aI6
aI14
aI5
aa(lp191
I1
aI4
aI9
aI0
aI7
aI9
aI8
ag17
aI13
ag23
aI5
aI11
aI14
aI14
ag106
aI15
aI11
ag29
aI15
aI14
aI11
ag109
aI15
ag38
aI8
aI1
ag44
ag47
aI0
aI9
aI14
aI2
aI8
aI5
aI0
aI8
aI5
aI0
aI13
aI3
ag90
aI0
aI14
aI3
aI15
aI0
aI15
aI0
ag96
aI0
aI8
aI0
aI0
ag56
ag59
aI4
aI8
aI14
aI10
aI0
aI14
aI0
aI11
aI11
aI0
aI0
aI10
aI9
aI0
aI0
aI0
aI0
aa(lp192
g103
aI8
aI12
aI14
ag14
ag120
aI0
ag17
aI7
aI4
aI12
aI0
aI8
aI14
ag106
aI14
ag81
ag29
ag32
aI6
aI4
aI0
aI0
ag38
aI3
aI10
aI3
aI14
aI0
aI0
aI1
aI10
aI6
aI11
aI7
aI11
aI0
aI5
aI0
aI14
aI2
aI11
aI5
ag93
aI8
aI3
aI15
aI0
aI5
aI9
aI5
aI14
aI0
aI1
aI2
aI5
aI10
aI2
aI15
aI11
aI8
aI0
aI8
ag116
aI0
aI7
aI3
aI0
aI13
aI0
aI3
aI10
aa(lp193
g103
ag11
ag66
aI0
ag14
ag120
ag69
aI14
ag20
aI4
ag72
aI0
ag75
ag26
aI6
ag78
ag81
ag29
ag32
aI0
aI9
ag109
ag35
ag38
aI0
ag41
aI4
aI1
aI0
aI0
aI0
aI8
ag50
ag84
aI0
aI3
aI0
aI0
aI0
aI0
ag90
aI0
ag53
ag93
aI0
aI0
aI2
aI0
ag96
aI0
aI0
aI0
aI0
ag56
ag59
ag113
aI4
aI0
ag62
aI0
aI0
aI5
ag99
aI15
aI0
aI0
aI0
aI0
aI0
aI7
aI0
aI0
aa(lp194
I10
ag11
aI8
aI0
aI4
ag120
aI2
aI0
aI10
ag23
aI2
aI4
aI15
aI13
aI7
ag78
ag81
aI5
aI2
aI0
aI0
ag109
aI6
ag38
aI0
aI8
aI5
aI0
aI4
aI10
aI10
aI7
ag50
aI12
aI14
aI7
aI0
aI6
aI9
aI4
aI15
aI0
aI1
ag93
aI12
aI15
aI4
aI9
aI5
aI13
aI7
aI4
aI14
aI8
aI14
aI5
aI0
aI1
aI6
aI12
aI0
aI0
ag99
aI0
aI4
aI0
aI11
aI0
aI9
aI8
aI0
aI11
aa(lp195
g103
ag11
ag66
aI14
aI6
ag120
ag69
ag17
ag20
aI7
ag72
aI2
ag75
aI6
ag106
ag78
ag81
aI6
ag32
aI0
aI0
ag109
ag35
ag38
aI0
ag41
ag44
ag47
aI10
aI0
aI0
aI0
ag50
aI12
aI0
aI13
aI0
aI1
aI0
aI12
ag90
aI0
ag53
ag93
aI11
aI6
aI0
aI0
ag96
aI0
aI0
aI0
aI0
aI0
aI2
ag113
aI3
aI0
aI1
aI0
aI0
aI0
ag99
ag116
aI9
aI0
aI0
aI1
aI0
aI0
aI0
aI0
aa(lp196
I5
ag11
ag66
aI0
ag14
ag120
ag69
ag17
aI9
ag23
aI6
aI0
ag75
ag26
ag106
ag78
ag81
ag29
ag32
aI11
aI0
aI13
ag35
aI1
aI0
ag41
ag44
ag47
aI0
aI0
aI0
aI0
ag50
ag84
aI0
ag87
aI0
aI0
aI0
aI14
ag90
aI0
ag53
ag93
aI0
aI0
aI0
aI0
ag96
aI0
aI0
aI0
aI0
ag56
ag59
ag113
aI0
aI0
ag62
aI1
aI0
aI0
aI6
ag116
aI15
aI0
aI0
aI0
aI13
aI14
aI9
aI0
aa(lp197
I13
ag11
ag66
aI0
ag14
aI15
ag69
aI15
aI13
ag23
ag72
aI13
aI5
ag26
aI10
aI0
aI9
ag29
ag32
aI13
aI4
ag109
ag35
aI10
aI10
aI11
aI5
ag47
aI0
aI0
aI0
aI0
aI7
ag84
aI1
ag87
aI4
aI0
aI0
aI0
ag90
aI0
ag53
ag93
aI6
aI3
aI9
aI0
aI6
aI2
aI0
aI14
aI11
aI10
ag59
ag113
aI0
aI0
ag62
aI0
aI0
aI0
ag99
ag116
aI12
aI0
aI0
aI0
aI0
aI8
aI0
aI0
aa(lp198
g103
ag11
ag66
aI4
aI1
ag120
ag69
aI11
aI9
aI14
ag72
aI0
aI14
aI0
ag106
ag78
ag81
ag29
ag32
aI0
aI8
ag109
aI12
aI14
aI0
aI9
ag44
aI6
aI0
aI0
aI0
aI0
ag50
ag84
aI8
ag87
aI15
aI7
aI11
aI10
aI4
aI11
aI12
aI12
aI10
aI12
aI0
aI0
aI6
aI0
aI0
aI0
aI6
ag56
aI1
aI8
aI8
aI9
aI14
aI0
aI0
aI5
ag99
ag116
aI13
aI14
aI0
aI1
aI0
aI4
aI0
aI0
aa(lp199
g103
aI6
ag66
aI0
aI0
ag120
aI12
ag17
aI7
ag23
aI0
aI0
ag75
ag26
ag106
aI11
ag81
ag29
ag32
aI0
aI15
ag109
aI14
ag38
aI0
ag41
ag44
ag47
aI0
aI0
aI14
aI3
ag50
aI15
aI0
ag87
aI0
aI0
aI5
aI3
ag90
aI0
ag53
ag93
aI0
aI0
aI4
aI0
ag96
aI0
aI0
aI0
aI8
ag56
aI1
ag113
aI0
aI0
ag62
aI14
aI0
aI0
ag99
aI12
aI8
aI0
aI0
aI0
aI8
aI0
aI0
aI0
aa(lp200
I9
ag11
ag66
aI0
aI0
ag120
ag69
aI6
ag20
aI12
aI2
aI11
aI9
ag26
ag106
aI5
ag81
aI8
ag32
aI0
aI0
aI2
ag35
aI9
aI0
ag41
ag44
ag47
aI0
aI0
aI0
aI0
aI5
ag84
aI0
ag87
aI0
aI0
aI0
aI0
ag90
aI0
aI0
ag93
aI2
aI0
aI0
aI8
aI12
aI9
aI0
aI0
aI0
ag56
ag59
ag113
aI0
aI0
ag62
aI0
aI1
aI0
ag99
ag116
aI0
aI0
aI0
aI14
aI0
aI0
aI9
aI14
aa(lp201
g103
aI8
ag66
aI0
aI6
aI5
aI1
ag17
aI2
aI9
aI13
aI12
aI15
aI15
aI9
ag78
ag81
aI1
aI1
aI0
aI6
ag109
ag35
aI0
aI13
aI5
ag44
aI0
aI0
aI0
aI12
aI0
aI7
ag84
aI7
ag87
aI5
aI13
aI7
aI7
ag90
aI0
aI11
aI13
aI3
aI14
aI9
aI0
ag96
aI5
aI3
aI0
aI5
aI13
aI14
aI3
aI10
aI7
aI13
aI12
aI15
aI5
aI13
aI1
aI0
aI12
aI7
aI6
aI15
aI0
aI12
aI12
aa(lp202
g103
ag11
ag66
aI0
ag14
ag120
aI7
ag17
aI7
ag23
aI6
aI0
ag75
ag26
ag106
ag78
ag81
ag29
aI6
aI7
aI0
ag109
aI5
aI12
aI0
aI1
ag44
aI13
aI0
aI0
aI0
aI14
ag50
ag84
aI0
aI13
aI4
aI0
aI0
aI0
ag90
aI14
ag53
ag93
aI0
aI0
aI6
aI0
aI15
aI0
aI1
aI0
aI5
ag56
aI5
ag113
aI0
aI0
aI13
aI0
aI0
aI0
ag99
ag116
aI0
aI0
aI0
aI11
aI0
aI10
aI0
aI0
aa(lp203
I14
ag11
aI8
aI0
ag14
ag120
aI5
ag17
aI12
ag23
ag72
aI0
aI6
ag26
aI13
aI6
aI8
ag29
aI13
aI13
aI0
aI1
ag35
ag38
aI0
ag41
aI0
aI14
aI10
aI7
aI13
aI11
aI14
ag84
aI10
ag87
aI15
aI12
aI3
aI0
aI5
aI0
ag53
aI12
aI0
aI0
aI0
aI10
aI3
aI1
aI2
aI14
aI0
ag56
aI9
aI4
aI15
aI0
ag62
aI3
aI7
aI5
ag99
aI13
aI8
aI8
aI2
aI1
aI0
aI5
aI7
aI4
aa(lp204
g103
ag11
aI8
aI0
ag14
ag120
ag69
aI4
aI2
ag23
aI10
aI0
ag75
ag26
aI10
ag78
ag81
aI10
ag32
aI0
aI0
aI11
ag35
aI3
aI0
ag41
ag44
ag47
aI0
aI6
aI9
aI0
aI7
aI4
aI0
aI3
aI0
aI0
aI0
aI2
ag90
aI12
ag53
ag93
aI0
aI0
aI0
aI0
ag96
aI0
aI14
aI0
aI9
aI4
ag59
ag113
aI0
aI0
ag62
aI0
aI0
aI0
aI3
ag116
aI11
aI0
aI7
aI0
aI0
aI0
aI0
aI0
aa(lp205
g103
ag11
ag66
aI0
ag14
aI2
ag69
ag17
ag20
ag23
ag72
aI7
ag75
ag26
aI9
aI0
ag81
ag29
ag32
aI0
aI0
ag109
ag35
aI8
aI0
aI0
ag44
aI9
aI0
aI8
aI0
aI12
ag50
ag84
aI0
ag87
aI0
aI0
aI0
aI0
ag90
aI3
ag53
aI3
aI0
aI0
aI0
aI0
aI13
aI0
aI0
aI6
aI0
ag56
aI11
aI3
aI0
aI13
ag62
aI0
aI0
aI0
ag99
ag116
aI13
aI0
aI9
aI0
aI13
aI0
aI5
aI0
aa(lp206
I2
ag11
ag66
aI1
ag14
ag120
aI2
ag17
ag20
aI2
ag72
aI0
aI6
aI1
ag106
aI9
aI5
aI2
ag32
aI0
aI12
aI0
ag35
aI3
aI9
ag41
ag44
ag47
aI0
aI0
aI8
aI0
ag50
aI13
aI5
ag87
aI1
aI4
aI3
aI14
ag90
aI0
ag53
ag93
aI8
aI5
aI13
aI0
ag96
aI10
aI0
aI0
aI0
ag56
ag59
ag113
aI0
aI0
aI7
aI0
aI7
aI0
aI10
ag116
aI0
aI0
aI0
aI0
aI0
aI0
aI0
aI0
aa(lp207
I1
ag11
ag66
aI1
aI12
ag120
aI1
aI7
aI1
ag23
ag72
aI0
ag75
ag26
ag106
ag78
aI11
ag29
ag32
aI0
aI0
ag109
ag35
ag38
aI0
ag41
ag44
ag47
aI0
aI6
aI0
aI0
aI15
ag84
aI7
aI0
aI0
aI0
aI0
aI0
ag90
aI0
ag53
ag93
aI0
aI14
aI0
aI9
aI13
aI0
aI0
aI0
aI0
aI0
aI7
ag113
aI9
aI0
aI8
aI0
aI0
aI0
ag99
ag116
aI0
aI0
aI4
aI0
aI0
aI0
aI5
aI15
aa(lp208
I13
aI7
aI13
aI0
ag14
ag120
ag69
ag17
ag20
ag23
aI6
aI0
aI2
aI13
aI1
ag78
ag81
ag29
aI10
aI0
aI6
ag109
ag35
aI9
aI2
ag41
aI9
aI12
aI0
aI12
aI13
aI0
ag50
ag84
aI0
aI3
aI0
aI0
aI7
aI0
ag90
aI3
aI1
ag93
aI0
aI14
aI0
aI0
ag96
aI0
aI0
aI2
aI5
ag56
ag59
aI6
aI6
aI0
aI11
aI12
aI2
aI0
aI5
aI5
aI4
aI11
aI2
aI11
aI12
aI11
aI14
aI0
aa(lp209
g103
ag11
ag66
aI11
ag14
ag120
ag69
ag17
aI6
aI4
aI11
aI0
aI3
ag26
ag106
aI12
ag81
ag29
ag32
aI0
aI0
ag109
aI5
ag38
aI0
aI11
aI9
aI5
aI0
aI0
aI0
aI7
ag50
aI15
aI0
aI15
aI0
aI11
aI0
aI13
ag90
aI0
ag53
ag93
aI11
aI0
aI11
aI0
aI4
aI0
aI0
aI0
aI9
aI15
ag59
ag113
aI0
aI0
ag62
aI13
aI12
aI11
ag99
ag116
aI0
aI0
aI6
aI4
aI0
aI0
aI6
aI2
aa(lp210
g103
aI2
ag66
aI3
aI14
aI1
ag69
ag17
aI10
ag23
ag72
aI0
ag75
ag26
ag106
ag78
ag81
ag29
ag32
aI0
aI0
ag109
ag35
ag38
aI0
ag41
ag44
ag47
aI7
aI0
aI0
aI0
aI6
ag84
aI0
ag87
aI0
aI0
aI13
aI0
ag90
aI0
aI5
aI1
aI0
aI0
aI6
aI0
aI5
aI0
aI0
aI0
aI0
aI1
aI4
aI8
aI13
aI0
ag62
aI0
aI10
aI14
ag99
ag116
aI0
aI3
aI0
aI12
aI0
aI0
aI0
aI0
aa(lp211
g103
ag11
aI11
aI0
ag14
ag120
ag69
ag17
aI3
ag23
ag72
aI15
aI2
ag26
ag106
ag78
aI5
ag29
aI10
aI0
aI0
aI0
ag35
aI2
aI7
ag41
aI10
ag47
aI7
aI2
aI0
aI2
aI6
aI6
aI15
ag87
aI9
aI11
aI0
aI6
aI5
aI0
aI8
aI0
aI0
aI0
aI0
aI0
aI12
aI4
aI5
aI2
aI8
aI7
aI3
aI12
aI0
aI7
ag62
aI0
aI12
aI5
ag99
ag116
aI0
aI0
aI0
aI2
aI15
aI0
aI0
aI2
aa(lp212
I14
ag11
ag66
aI0
aI15
aI2
aI10
aI11
aI2
aI15
ag72
aI6
aI8
ag26
aI0
ag78
aI4
ag29
ag32
aI8
aI4
aI11
aI0
ag38
aI5
aI0
aI11
ag47
aI0
aI0
aI0
aI0
aI14
ag84
aI6
ag87
aI6
aI6
aI0
aI1
aI8
aI0
ag53
aI0
aI0
aI0
aI0
aI6
ag96
aI0
aI12
aI1
aI11
ag56
aI7
ag113
aI7
aI3
aI0
aI11
aI2
aI9
aI14
ag116
aI11
aI11
aI0
aI1
aI0
aI0
aI9
aI3
aa(lp213
I13
aI12
ag66
aI0
aI5
aI10
aI3
ag17
ag20
aI2
ag72
aI0
ag75
ag26
aI1
ag78
ag81
aI13
ag32
aI0
aI1
ag109
ag35
ag38
aI14
aI11
ag44
aI7
aI12
aI0
aI0
aI8
aI7
ag84
aI0
aI3
aI0
aI15
aI0
aI0
aI10
aI0
aI15
ag93
aI1
aI0
aI0
aI0
aI13
aI0
aI0
aI0
aI0
ag56
ag59
ag113
aI0
aI0
aI10
aI0
aI0
aI6
ag99
ag116
aI8
aI7
aI0
aI0
aI12
aI0
aI0
aI0
aa(lp214
g103
aI14
aI3
aI5
ag14
aI11
aI12
aI7
aI14
ag23
aI13
aI15
ag75
ag26
aI11
aI5
ag81
ag29
aI3
aI11
aI9
aI0
aI6
aI8
aI14
aI2
ag44
ag47
aI0
aI15
aI3
aI11
ag50
ag84
aI13
ag87
aI0
aI0
aI1
aI15
ag90
aI9
aI15
aI10
aI4
aI0
aI11
aI11
aI12
aI0
aI0
aI9
aI2
aI11
ag59
aI5
aI0
aI10
aI1
aI0
aI0
aI9
ag99
ag116
aI14
aI0
aI0
aI11
aI0
aI10
aI0
aI12
aa(lp215
I3
ag11
ag66
aI14
ag14
ag120
aI13
ag17
aI8
ag23
aI11
aI11
ag75
aI14
aI10
aI0
ag81
aI13
aI0
aI0
aI5
aI2
aI5
ag38
aI0
ag41
aI12
ag47
aI15
aI0
aI0
aI0
ag50
ag84
aI14
ag87
aI4
aI10
aI0
aI0
ag90
aI0
ag53
ag93
aI12
aI0
aI0
aI0
aI3
aI4
aI6
aI0
aI0
aI1
aI4
aI7
aI0
aI1
aI12
aI10
aI14
aI7
aI14
aI11
aI0
aI15
aI4
aI0
aI0
aI0
aI0
aI0
aa.